target datalayout = "e-m:e-p270:32:32-p271:32:32-p272:64:64-i64:64-i128:128-f80:128-n8:16:32:64-S128"
target triple = "x86_64-unknown-linux-gnu"

%"class.icu_75::RuleBasedCollator" = type <{ %"class.icu_75::Collator", ptr, ptr, ptr, ptr, %"class.icu_75::Locale", i32, i8, [3 x i8] }>
%"class.icu_75::Collator" = type { %"class.icu_75::UObject" }
%"class.icu_75::UObject" = type { ptr }
%"class.icu_75::Locale" = type <{ %"class.icu_75::UObject", [12 x i8], [6 x i8], [4 x i8], [2 x i8], i32, [4 x i8], ptr, [157 x i8], [3 x i8], ptr, i8, [7 x i8] }>
%"struct.icu_75::CollationTailoring" = type { %"class.icu_75::SharedObject", ptr, ptr, %"class.icu_75::UnicodeString", %"class.icu_75::Locale", [4 x i8], ptr, ptr, ptr, ptr, ptr, ptr, ptr, %"struct.icu_75::UInitOnce" }
%"class.icu_75::SharedObject" = type { %"class.icu_75::UObject", i32, %"struct.std::atomic", ptr }
%"struct.std::atomic" = type { %"struct.std::__atomic_base" }
%"struct.std::__atomic_base" = type { i32 }
%"class.icu_75::UnicodeString" = type { %"class.icu_75::Replaceable", %"union.icu_75::UnicodeString::StackBufferOrFields" }
%"class.icu_75::Replaceable" = type { %"class.icu_75::UObject" }
%"union.icu_75::UnicodeString::StackBufferOrFields" = type { %struct.anon.1, [32 x i8] }
%struct.anon.1 = type { i16, i32, i32, ptr }
%"struct.icu_75::UInitOnce" = type { %"struct.std::atomic", i32 }

; Function Attrs: mustprogress uwtable
define linkonce_odr void @_ZN6icu_7512SharedObject7copyPtrINS_19CollationCacheEntryEEEvPKT_RS5_(ptr noundef %src, ptr noundef nonnull align 8 dereferenceable(8) %dest) #1 comdat align 2 {
entry:
  %src.addr = alloca ptr, align 8
  %dest.addr = alloca ptr, align 8
  store ptr %src, ptr %src.addr, align 8
  store ptr %dest, ptr %dest.addr, align 8
  %0 = load ptr, ptr %src.addr, align 8
  %1 = load ptr, ptr %dest.addr, align 8
  %2 = load ptr, ptr %1, align 8
  %cmp = icmp ne ptr %0, %2
  br i1 %cmp, label %if.then, label %if.end6

if.then:                                          ; preds = %entry
  %3 = load ptr, ptr %dest.addr, align 8
  %4 = load ptr, ptr %3, align 8
  %cmp1 = icmp ne ptr %4, null
  br i1 %cmp1, label %if.then2, label %if.end

if.then2:                                         ; preds = %if.then
  %5 = load ptr, ptr %dest.addr, align 8
  %6 = load ptr, ptr %5, align 8
  call void @_ZNK6icu_7512SharedObject9removeRefEv(ptr noundef nonnull align 8 dereferenceable(24) %6)
  br label %if.end

if.end:                                           ; preds = %if.then2, %if.then
  %7 = load ptr, ptr %src.addr, align 8
  %8 = load ptr, ptr %dest.addr, align 8
  store ptr %7, ptr %8, align 8
  %9 = load ptr, ptr %src.addr, align 8
  %cmp3 = icmp ne ptr %9, null
  br i1 %cmp3, label %if.then4, label %if.end5

if.then4:                                         ; preds = %if.end
  %10 = load ptr, ptr %src.addr, align 8
  call void @_ZNK6icu_7512SharedObject6addRefEv(ptr noundef nonnull align 8 dereferenceable(24) %10)
  br label %if.end5

if.end5:                                          ; preds = %if.then4, %if.end
  br label %if.end6

if.end6:                                          ; preds = %if.end5, %entry
  ret void
}

; Function Attrs: mustprogress uwtable
define linkonce_odr void @_ZN6icu_7512SharedObject7copyPtrINS_17CollationSettingsEEEvPKT_RS5_(ptr noundef %src, ptr noundef nonnull align 8 dereferenceable(8) %dest) #1 comdat align 2 {
entry:
  %src.addr = alloca ptr, align 8
  %dest.addr = alloca ptr, align 8
  store ptr %src, ptr %src.addr, align 8
  store ptr %dest, ptr %dest.addr, align 8
  %0 = load ptr, ptr %src.addr, align 8
  %1 = load ptr, ptr %dest.addr, align 8
  %2 = load ptr, ptr %1, align 8
  %cmp = icmp ne ptr %0, %2
  br i1 %cmp, label %if.then, label %if.end6

if.then:                                          ; preds = %entry
  %3 = load ptr, ptr %dest.addr, align 8
  %4 = load ptr, ptr %3, align 8
  %cmp1 = icmp ne ptr %4, null
  br i1 %cmp1, label %if.then2, label %if.end

if.then2:                                         ; preds = %if.then
  %5 = load ptr, ptr %dest.addr, align 8
  %6 = load ptr, ptr %5, align 8
  call void @_ZNK6icu_7512SharedObject9removeRefEv(ptr noundef nonnull align 8 dereferenceable(24) %6)
  br label %if.end

if.end:                                           ; preds = %if.then2, %if.then
  %7 = load ptr, ptr %src.addr, align 8
  %8 = load ptr, ptr %dest.addr, align 8
  store ptr %7, ptr %8, align 8
  %9 = load ptr, ptr %src.addr, align 8
  %cmp3 = icmp ne ptr %9, null
  br i1 %cmp3, label %if.then4, label %if.end5

if.then4:                                         ; preds = %if.end
  %10 = load ptr, ptr %src.addr, align 8
  call void @_ZNK6icu_7512SharedObject6addRefEv(ptr noundef nonnull align 8 dereferenceable(24) %10)
  br label %if.end5

if.end5:                                          ; preds = %if.then4, %if.end
  br label %if.end6

if.end6:                                          ; preds = %if.end5, %entry
  ret void
}

; Function Attrs: mustprogress uwtable
define noundef nonnull align 8 dereferenceable(272) ptr @_ZN6icu_7517RuleBasedCollatoraSERKS0_(ptr noundef nonnull align 8 dereferenceable(272) %this, ptr noundef nonnull align 8 dereferenceable(272) %other) #1 align 2 {
entry:
  %retval = alloca ptr, align 8
  %this.addr = alloca ptr, align 8
  %other.addr = alloca ptr, align 8
  store ptr %this, ptr %this.addr, align 8
  store ptr %other, ptr %other.addr, align 8
  %this1 = load ptr, ptr %this.addr, align 8
  %0 = load ptr, ptr %other.addr, align 8
  %cmp = icmp eq ptr %this1, %0
  br i1 %cmp, label %if.then, label %if.end

if.then:                                          ; preds = %entry
  store ptr %this1, ptr %retval, align 8
  br label %return

if.end:                                           ; preds = %entry
  %1 = load ptr, ptr %other.addr, align 8
  %settings = getelementptr inbounds %"class.icu_75::RuleBasedCollator", ptr %1, i32 0, i32 2
  %2 = load ptr, ptr %settings, align 8
  %settings2 = getelementptr inbounds %"class.icu_75::RuleBasedCollator", ptr %this1, i32 0, i32 2
  call void @_ZN6icu_7512SharedObject7copyPtrINS_17CollationSettingsEEEvPKT_RS5_(ptr noundef %2, ptr noundef nonnull align 8 dereferenceable(8) %settings2)
  %3 = load ptr, ptr %other.addr, align 8
  %tailoring = getelementptr inbounds %"class.icu_75::RuleBasedCollator", ptr %3, i32 0, i32 3
  %4 = load ptr, ptr %tailoring, align 8
  %tailoring3 = getelementptr inbounds %"class.icu_75::RuleBasedCollator", ptr %this1, i32 0, i32 3
  store ptr %4, ptr %tailoring3, align 8
  %5 = load ptr, ptr %other.addr, align 8
  %cacheEntry = getelementptr inbounds %"class.icu_75::RuleBasedCollator", ptr %5, i32 0, i32 4
  %6 = load ptr, ptr %cacheEntry, align 8
  %cacheEntry4 = getelementptr inbounds %"class.icu_75::RuleBasedCollator", ptr %this1, i32 0, i32 4
  call void @_ZN6icu_7512SharedObject7copyPtrINS_19CollationCacheEntryEEEvPKT_RS5_(ptr noundef %6, ptr noundef nonnull align 8 dereferenceable(8) %cacheEntry4)
  %tailoring5 = getelementptr inbounds %"class.icu_75::RuleBasedCollator", ptr %this1, i32 0, i32 3
  %7 = load ptr, ptr %tailoring5, align 8
  %data = getelementptr inbounds %"struct.icu_75::CollationTailoring", ptr %7, i32 0, i32 1
  %8 = load ptr, ptr %data, align 8
  %data6 = getelementptr inbounds %"class.icu_75::RuleBasedCollator", ptr %this1, i32 0, i32 1
  store ptr %8, ptr %data6, align 8
  %9 = load ptr, ptr %other.addr, align 8
  %validLocale = getelementptr inbounds %"class.icu_75::RuleBasedCollator", ptr %9, i32 0, i32 5
  %validLocale7 = getelementptr inbounds %"class.icu_75::RuleBasedCollator", ptr %this1, i32 0, i32 5
  %call = call noundef nonnull align 8 dereferenceable(217) ptr @_ZN6icu_756LocaleaSERKS0_(ptr noundef nonnull align 8 dereferenceable(217) %validLocale7, ptr noundef nonnull align 8 dereferenceable(217) %validLocale)
  %10 = load ptr, ptr %other.addr, align 8
  %explicitlySetAttributes = getelementptr inbounds %"class.icu_75::RuleBasedCollator", ptr %10, i32 0, i32 6
  %11 = load i32, ptr %explicitlySetAttributes, align 8
  %explicitlySetAttributes8 = getelementptr inbounds %"class.icu_75::RuleBasedCollator", ptr %this1, i32 0, i32 6
  store i32 %11, ptr %explicitlySetAttributes8, align 8
  %12 = load ptr, ptr %other.addr, align 8
  %actualLocaleIsSameAsValid = getelementptr inbounds %"class.icu_75::RuleBasedCollator", ptr %12, i32 0, i32 7
  %13 = load i8, ptr %actualLocaleIsSameAsValid, align 4
  %actualLocaleIsSameAsValid9 = getelementptr inbounds %"class.icu_75::RuleBasedCollator", ptr %this1, i32 0, i32 7
  store i8 %13, ptr %actualLocaleIsSameAsValid9, align 4
  store ptr %this1, ptr %retval, align 8
  br label %return

return:                                           ; preds = %if.end, %if.then
  %14 = load ptr, ptr %retval, align 8
  ret ptr %14
}