; Function Attrs: mustprogress uwtable
define noundef nonnull align 8 dereferenceable(272) ptr @_ZN6icu_7517RuleBasedCollatoraSERKS0_(ptr noundef nonnull returned align 8 dereferenceable(272) %this, ptr noundef nonnull align 8 dereferenceable(272) %other) local_unnamed_addr #1 align 2 {
entry:
  %cmp = icmp eq ptr %this, %other
  br i1 %cmp, label %return, label %if.end

if.end:                                           ; preds = %entry
  %settings = getelementptr inbounds i8, ptr %other, i64 16
  %0 = load ptr, ptr %settings, align 8
  %settings2 = getelementptr inbounds i8, ptr %this, i64 16
  %1 = load ptr, ptr %settings2, align 8
  %cmp.not.i = icmp eq ptr %1, %0
  br i1 %cmp.not.i, label %_ZN6icu_7512SharedObject7copyPtrINS_17CollationSettingsEEEvPKT_RS5_.exit, label %if.then.i

if.then.i:                                        ; preds = %if.end
  %cmp1.not.i = icmp eq ptr %1, null
  br i1 %cmp1.not.i, label %if.end.i, label %if.then2.i

if.then2.i:                                       ; preds = %if.then.i
  tail call void @_ZNK6icu_7512SharedObject9removeRefEv(ptr noundef nonnull align 8 dereferenceable(24) %1)
  br label %if.end.i

if.end.i:                                         ; preds = %if.then2.i, %if.then.i
  store ptr %0, ptr %settings2, align 8
  %cmp3.not.i = icmp eq ptr %0, null
  br i1 %cmp3.not.i, label %_ZN6icu_7512SharedObject7copyPtrINS_17CollationSettingsEEEvPKT_RS5_.exit, label %if.then4.i

if.then4.i:                                       ; preds = %if.end.i
  tail call void @_ZNK6icu_7512SharedObject6addRefEv(ptr noundef nonnull align 8 dereferenceable(24) %0)
  br label %_ZN6icu_7512SharedObject7copyPtrINS_17CollationSettingsEEEvPKT_RS5_.exit

_ZN6icu_7512SharedObject7copyPtrINS_17CollationSettingsEEEvPKT_RS5_.exit: ; preds = %if.end, %if.end.i, %if.then4.i
  %tailoring = getelementptr inbounds i8, ptr %other, i64 24
  %2 = load ptr, ptr %tailoring, align 8
  %tailoring3 = getelementptr inbounds i8, ptr %this, i64 24
  store ptr %2, ptr %tailoring3, align 8
  %cacheEntry = getelementptr inbounds i8, ptr %other, i64 32
  %3 = load ptr, ptr %cacheEntry, align 8
  %cacheEntry4 = getelementptr inbounds i8, ptr %this, i64 32
  %4 = load ptr, ptr %cacheEntry4, align 8
  %cmp.not.i7 = icmp eq ptr %4, %3
  br i1 %cmp.not.i7, label %_ZN6icu_7512SharedObject7copyPtrINS_19CollationCacheEntryEEEvPKT_RS5_.exit, label %if.then.i8

if.then.i8:                                       ; preds = %_ZN6icu_7512SharedObject7copyPtrINS_17CollationSettingsEEEvPKT_RS5_.exit
  %cmp1.not.i9 = icmp eq ptr %4, null
  br i1 %cmp1.not.i9, label %if.end.i11, label %if.then2.i10

if.then2.i10:                                     ; preds = %if.then.i8
  tail call void @_ZNK6icu_7512SharedObject9removeRefEv(ptr noundef nonnull align 8 dereferenceable(24) %4)
  br label %if.end.i11

if.end.i11:                                       ; preds = %if.then2.i10, %if.then.i8
  store ptr %3, ptr %cacheEntry4, align 8
  %cmp3.not.i12 = icmp eq ptr %3, null
  br i1 %cmp3.not.i12, label %_ZN6icu_7512SharedObject7copyPtrINS_19CollationCacheEntryEEEvPKT_RS5_.exit, label %if.then4.i13

if.then4.i13:                                     ; preds = %if.end.i11
  tail call void @_ZNK6icu_7512SharedObject6addRefEv(ptr noundef nonnull align 8 dereferenceable(24) %3)
  br label %_ZN6icu_7512SharedObject7copyPtrINS_19CollationCacheEntryEEEvPKT_RS5_.exit

_ZN6icu_7512SharedObject7copyPtrINS_19CollationCacheEntryEEEvPKT_RS5_.exit: ; preds = %_ZN6icu_7512SharedObject7copyPtrINS_17CollationSettingsEEEvPKT_RS5_.exit, %if.end.i11, %if.then4.i13
  %5 = load ptr, ptr %tailoring3, align 8
  %data = getelementptr inbounds i8, ptr %5, i64 24
  %6 = load ptr, ptr %data, align 8
  %data6 = getelementptr inbounds i8, ptr %this, i64 8
  store ptr %6, ptr %data6, align 8
  %validLocale = getelementptr inbounds i8, ptr %other, i64 40
  %validLocale7 = getelementptr inbounds i8, ptr %this, i64 40
  %call = tail call noundef nonnull align 8 dereferenceable(217) ptr @_ZN6icu_756LocaleaSERKS0_(ptr noundef nonnull align 8 dereferenceable(217) %validLocale7, ptr noundef nonnull align 8 dereferenceable(217) %validLocale)
  %explicitlySetAttributes = getelementptr inbounds i8, ptr %other, i64 264
  %7 = load i32, ptr %explicitlySetAttributes, align 8
  %explicitlySetAttributes8 = getelementptr inbounds i8, ptr %this, i64 264
  store i32 %7, ptr %explicitlySetAttributes8, align 8
  %actualLocaleIsSameAsValid = getelementptr inbounds i8, ptr %other, i64 268
  %8 = load i8, ptr %actualLocaleIsSameAsValid, align 4
  %actualLocaleIsSameAsValid9 = getelementptr inbounds i8, ptr %this, i64 268
  store i8 %8, ptr %actualLocaleIsSameAsValid9, align 4
  br label %return

return:                                           ; preds = %entry, %_ZN6icu_7512SharedObject7copyPtrINS_19CollationCacheEntryEEEvPKT_RS5_.exit
  ret ptr %this
}